target datalayout = "e-m:e-p270:32:32-p271:32:32-p272:64:64-i64:64-i128:128-f80:128-n8:16:32:64-S128"
target triple = "x86_64-pc-linux-gnu"

@_ui_panel_config_names = global [6 x ptr] [ptr @.str, ptr @.str.1, ptr @.str.2, ptr @.str.3, ptr @.str.4, ptr @.str.5], align 16
@.str.84 = private unnamed_addr constant [6 x i8] c"_size\00", align 1
@.str.182 = private unnamed_addr constant [1 x i8] zeroinitializer, align 1
@.str.274 = private unnamed_addr constant [5 x i8] c"%s%s\00", align 1

; Function Attrs: nounwind uwtable
define internal ptr @_panels_get_panel_path(i32 noundef %0, ptr noundef %1) #0 {
  %3 = alloca ptr, align 8
  %4 = alloca i32, align 4
  %5 = alloca ptr, align 8
  %6 = alloca ptr, align 8
  %7 = alloca i32, align 4
  store i32 %0, ptr %4, align 4, !tbaa !17
  store ptr %1, ptr %5, align 8, !tbaa !11
  call void @llvm.lifetime.start.p0(i64 8, ptr %6) #15
  %8 = call ptr @_panels_get_view_path(ptr noundef @.str.182)
  store ptr %8, ptr %6, align 8, !tbaa !11
  %9 = load ptr, ptr %6, align 8, !tbaa !11
  %10 = icmp ne ptr %9, null
  br i1 %10, label %12, label %11

11:                                               ; preds = %2
  store ptr null, ptr %3, align 8
  store i32 1, ptr %7, align 4
  br label %19

12:                                               ; preds = %2
  %13 = load i32, ptr %4, align 4, !tbaa !17
  %14 = zext i32 %13 to i64
  %15 = getelementptr inbounds nuw [6 x ptr], ptr @_ui_panel_config_names, i64 0, i64 %14
  %16 = load ptr, ptr %15, align 8, !tbaa !11
  %17 = load ptr, ptr %5, align 8, !tbaa !11
  call void (ptr, ptr, ...) @dt_util_str_cat(ptr noundef %6, ptr noundef @.str.274, ptr noundef %16, ptr noundef %17)
  %18 = load ptr, ptr %6, align 8, !tbaa !11
  store ptr %18, ptr %3, align 8
  store i32 1, ptr %7, align 4
  br label %19

19:                                               ; preds = %12, %11
  call void @llvm.lifetime.end.p0(i64 8, ptr %6) #15
  %20 = load ptr, ptr %3, align 8
  ret ptr %20
}

; Function Attrs: nounwind uwtable
define i32 @dt_ui_panel_get_size(ptr noundef %0, i32 noundef %1) #0 {
  %3 = alloca i32, align 4
  %4 = alloca ptr, align 8
  %5 = alloca i32, align 4
  %6 = alloca ptr, align 8
  %7 = alloca i32, align 4
  %8 = alloca i32, align 4
  store ptr %0, ptr %4, align 8, !tbaa !76
  store i32 %1, ptr %5, align 4, !tbaa !17
  call void @llvm.lifetime.start.p0(i64 8, ptr %6) #15
  store ptr null, ptr %6, align 8, !tbaa !11
  %9 = load i32, ptr %5, align 4, !tbaa !17
  %10 = icmp eq i32 %9, 3
  br i1 %10, label %17, label %11

11:                                               ; preds = %2
  %12 = load i32, ptr %5, align 4, !tbaa !17
  %13 = icmp eq i32 %12, 4
  br i1 %13, label %17, label %14

14:                                               ; preds = %11
  %15 = load i32, ptr %5, align 4, !tbaa !17
  %16 = icmp eq i32 %15, 5
  br i1 %16, label %17, label %37

17:                                               ; preds = %14, %11, %2
  call void @llvm.lifetime.start.p0(i64 4, ptr %7) #15
  store i32 0, ptr %7, align 4, !tbaa !17
  %18 = load i32, ptr %5, align 4, !tbaa !17
  %19 = call ptr @_panels_get_panel_path(i32 noundef %18, ptr noundef @.str.84)
  store ptr %19, ptr %6, align 8, !tbaa !11
  %20 = load ptr, ptr %6, align 8, !tbaa !11
  %21 = icmp ne ptr %20, null
  br i1 %21, label %22, label %29

22:                                               ; preds = %17
  %23 = load ptr, ptr %6, align 8, !tbaa !11
  %24 = call i32 @dt_conf_key_exists(ptr noundef %23)
  %25 = icmp ne i32 %24, 0
  br i1 %25, label %26, label %29

26:                                               ; preds = %22
  %27 = load ptr, ptr %6, align 8, !tbaa !11
  %28 = call i32 @dt_conf_get_int(ptr noundef %27)
  store i32 %28, ptr %7, align 4, !tbaa !17
  br label %34

29:                                               ; preds = %22, %17
  %30 = load i32, ptr %5, align 4, !tbaa !17
  %31 = icmp eq i32 %30, 5
  br i1 %31, label %32, label %33

32:                                               ; preds = %29
  store i32 120, ptr %7, align 4, !tbaa !17
  br label %33

33:                                               ; preds = %32, %29
  br label %34

34:                                               ; preds = %33, %26
  %35 = load ptr, ptr %6, align 8, !tbaa !11
  call void @g_free(ptr noundef %35)
  %36 = load i32, ptr %7, align 4, !tbaa !17
  store i32 %36, ptr %3, align 4
  store i32 1, ptr %8, align 4
  call void @llvm.lifetime.end.p0(i64 4, ptr %7) #15
  br label %38

37:                                               ; preds = %14
  store i32 -1, ptr %3, align 4
  store i32 1, ptr %8, align 4
  br label %38

38:                                               ; preds = %37, %34
  call void @llvm.lifetime.end.p0(i64 8, ptr %6) #15
  %39 = load i32, ptr %3, align 4
  ret i32 %39
}