; Function Attrs: nounwind uwtable
define i32 @dt_ui_panel_get_size(ptr noundef readnone captures(none) %0, i32 noundef %1) local_unnamed_addr #0 {
  %3 = alloca ptr, align 8
  %4 = icmp eq i32 %1, 5
  %5 = add i32 %1, -3
  %or.cond3 = icmp ult i32 %5, 3
  br i1 %or.cond3, label %6, label %18

6:                                                ; preds = %2
  call void @llvm.lifetime.start.p0(i64 8, ptr nonnull %3) #18
  %7 = tail call fastcc ptr @_panels_get_view_path(ptr noundef nonnull @.str.182)
  store ptr %7, ptr %3, align 8, !tbaa !126
  %.not.i = icmp eq ptr %7, null
  br i1 %.not.i, label %_panels_get_panel_path.exit.thread, label %_panels_get_panel_path.exit

_panels_get_panel_path.exit.thread:               ; preds = %6
  call void @llvm.lifetime.end.p0(i64 8, ptr nonnull %3) #18
  br label %16

_panels_get_panel_path.exit:                      ; preds = %6
  %8 = zext nneg i32 %1 to i64
  %9 = getelementptr inbounds nuw [6 x ptr], ptr @_ui_panel_config_names, i64 0, i64 %8
  %10 = load ptr, ptr %9, align 8, !tbaa !126
  call void (ptr, ptr, ...) @dt_util_str_cat(ptr noundef nonnull %3, ptr noundef nonnull @.str.274, ptr noundef %10, ptr noundef nonnull @.str.84) #18
  %11 = load ptr, ptr %3, align 8, !tbaa !126
  call void @llvm.lifetime.end.p0(i64 8, ptr nonnull %3) #18
  %.not = icmp eq ptr %11, null
  br i1 %.not, label %16, label %12

12:                                               ; preds = %_panels_get_panel_path.exit
  %13 = call i32 @dt_conf_key_exists(ptr noundef nonnull %11) #18
  %.not15 = icmp eq i32 %13, 0
  br i1 %.not15, label %16, label %14

14:                                               ; preds = %12
  %15 = call i32 @dt_conf_get_int(ptr noundef nonnull %11) #18
  br label %17

16:                                               ; preds = %_panels_get_panel_path.exit.thread, %12, %_panels_get_panel_path.exit
  %.0.i19 = phi ptr [ null, %_panels_get_panel_path.exit.thread ], [ %11, %12 ], [ null, %_panels_get_panel_path.exit ]
  %spec.select = select i1 %4, i32 120, i32 0
  br label %17

17:                                               ; preds = %16, %14
  %.0.i18 = phi ptr [ %11, %14 ], [ %.0.i19, %16 ]
  %.0 = phi i32 [ %15, %14 ], [ %spec.select, %16 ]
  call void @g_free(ptr noundef %.0.i18) #18
  br label %18

18:                                               ; preds = %2, %17
  %.013 = phi i32 [ %.0, %17 ], [ -1, %2 ]
  ret i32 %.013
}